target datalayout = "e-m:e-p270:32:32-p271:32:32-p272:64:64-i64:64-i128:128-f80:128-n8:16:32:64-S128"
target triple = "x86_64-pc-linux-gnu"

%struct.AVComplexFloat = type { float, float }
%struct.AVTXContext = type { i32, i32, ptr, ptr, ptr, ptr, [4 x ptr], i32, [4 x ptr], ptr, i32, i64, i32, float, double, ptr }

; Function Attrs: nounwind uwtable
define internal void @ff_tx_fft_naive_float_c(ptr noundef %0, ptr noundef %1, ptr noundef %2, i64 noundef %3) #4 {
  %5 = alloca ptr, align 8
  %6 = alloca ptr, align 8
  %7 = alloca ptr, align 8
  %8 = alloca i64, align 8
  %9 = alloca ptr, align 8
  %10 = alloca ptr, align 8
  %11 = alloca i32, align 4
  %12 = alloca double, align 8
  %13 = alloca i32, align 4
  %14 = alloca i32, align 4
  %15 = alloca %struct.AVComplexFloat, align 4
  %16 = alloca i32, align 4
  %17 = alloca double, align 8
  %18 = alloca %struct.AVComplexFloat, align 4
  %19 = alloca %struct.AVComplexFloat, align 4
  store ptr %0, ptr %5, align 8, !tbaa !17
  store ptr %1, ptr %6, align 8, !tbaa !8
  store ptr %2, ptr %7, align 8, !tbaa !8
  store i64 %3, ptr %8, align 8, !tbaa !30
  call void @llvm.lifetime.start.p0(i64 8, ptr %9) #10
  %20 = load ptr, ptr %7, align 8, !tbaa !8
  store ptr %20, ptr %9, align 8, !tbaa !60
  call void @llvm.lifetime.start.p0(i64 8, ptr %10) #10
  %21 = load ptr, ptr %6, align 8, !tbaa !8
  store ptr %21, ptr %10, align 8, !tbaa !60
  call void @llvm.lifetime.start.p0(i64 4, ptr %11) #10
  %22 = load ptr, ptr %5, align 8, !tbaa !17
  %23 = getelementptr inbounds nuw %struct.AVTXContext, ptr %22, i32 0, i32 0
  %24 = load i32, ptr %23, align 8, !tbaa !21
  store i32 %24, ptr %11, align 4, !tbaa !4
  call void @llvm.lifetime.start.p0(i64 8, ptr %12) #10
  %25 = load ptr, ptr %5, align 8, !tbaa !17
  %26 = getelementptr inbounds nuw %struct.AVTXContext, ptr %25, i32 0, i32 1
  %27 = load i32, ptr %26, align 4, !tbaa !85
  %28 = icmp ne i32 %27, 0
  br i1 %28, label %29, label %33

29:                                               ; preds = %4
  %30 = load i32, ptr %11, align 4, !tbaa !4
  %31 = sitofp i32 %30 to double
  %32 = fdiv nsz double 0x401921FB54442D18, %31
  br label %37

33:                                               ; preds = %4
  %34 = load i32, ptr %11, align 4, !tbaa !4
  %35 = sitofp i32 %34 to double
  %36 = fdiv nsz double 0xC01921FB54442D18, %35
  br label %37

37:                                               ; preds = %33, %29
  %38 = phi nsz double [ %32, %29 ], [ %36, %33 ]
  store double %38, ptr %12, align 8, !tbaa !29
  %39 = load i64, ptr %8, align 8, !tbaa !30
  %40 = udiv i64 %39, 8
  store i64 %40, ptr %8, align 8, !tbaa !30
  call void @llvm.lifetime.start.p0(i64 4, ptr %13) #10
  store i32 0, ptr %13, align 4, !tbaa !4
  br label %41

41:                                               ; preds = %130, %37
  %42 = load i32, ptr %13, align 4, !tbaa !4
  %43 = load i32, ptr %11, align 4, !tbaa !4
  %44 = icmp slt i32 %42, %43
  br i1 %44, label %46, label %45

45:                                               ; preds = %41
  store i32 2, ptr %14, align 4
  call void @llvm.lifetime.end.p0(i64 4, ptr %13) #10
  br label %133

46:                                               ; preds = %41
  call void @llvm.lifetime.start.p0(i64 8, ptr %15) #10
  call void @llvm.memset.p0.i64(ptr align 4 %15, i8 0, i64 8, i1 false)
  call void @llvm.lifetime.start.p0(i64 4, ptr %16) #10
  store i32 0, ptr %16, align 4, !tbaa !4
  br label %47

47:                                               ; preds = %120, %46
  %48 = load i32, ptr %16, align 4, !tbaa !4
  %49 = load i32, ptr %11, align 4, !tbaa !4
  %50 = icmp slt i32 %48, %49
  br i1 %50, label %52, label %51

51:                                               ; preds = %47
  store i32 5, ptr %14, align 4
  call void @llvm.lifetime.end.p0(i64 4, ptr %16) #10
  br label %123

52:                                               ; preds = %47
  call void @llvm.lifetime.start.p0(i64 8, ptr %17) #10
  %53 = load double, ptr %12, align 8, !tbaa !29
  %54 = load i32, ptr %13, align 4, !tbaa !4
  %55 = sitofp i32 %54 to double
  %56 = fmul nsz double %53, %55
  %57 = load i32, ptr %16, align 4, !tbaa !4
  %58 = sitofp i32 %57 to double
  %59 = fmul nsz double %56, %58
  store double %59, ptr %17, align 8, !tbaa !29
  call void @llvm.lifetime.start.p0(i64 8, ptr %18) #10
  %60 = getelementptr inbounds nuw %struct.AVComplexFloat, ptr %18, i32 0, i32 0
  %61 = load double, ptr %17, align 8, !tbaa !29
  %62 = call nsz double @llvm.cos.f64(double %61)
  %63 = fptrunc nsz double %62 to float
  store float %63, ptr %60, align 4, !tbaa !32
  %64 = getelementptr inbounds nuw %struct.AVComplexFloat, ptr %18, i32 0, i32 1
  %65 = load double, ptr %17, align 8, !tbaa !29
  %66 = call nsz double @llvm.sin.f64(double %65)
  %67 = fptrunc nsz double %66 to float
  store float %67, ptr %64, align 4, !tbaa !34
  call void @llvm.lifetime.start.p0(i64 8, ptr %19) #10
  br label %68

68:                                               ; preds = %52
  %69 = load ptr, ptr %9, align 8, !tbaa !60
  %70 = load i32, ptr %16, align 4, !tbaa !4
  %71 = sext i32 %70 to i64
  %72 = getelementptr inbounds %struct.AVComplexFloat, ptr %69, i64 %71
  %73 = getelementptr inbounds nuw %struct.AVComplexFloat, ptr %72, i32 0, i32 0
  %74 = load float, ptr %73, align 4, !tbaa !32
  %75 = getelementptr inbounds nuw %struct.AVComplexFloat, ptr %18, i32 0, i32 0
  %76 = load float, ptr %75, align 4, !tbaa !32
  %77 = load ptr, ptr %9, align 8, !tbaa !60
  %78 = load i32, ptr %16, align 4, !tbaa !4
  %79 = sext i32 %78 to i64
  %80 = getelementptr inbounds %struct.AVComplexFloat, ptr %77, i64 %79
  %81 = getelementptr inbounds nuw %struct.AVComplexFloat, ptr %80, i32 0, i32 1
  %82 = load float, ptr %81, align 4, !tbaa !34
  %83 = getelementptr inbounds nuw %struct.AVComplexFloat, ptr %18, i32 0, i32 1
  %84 = load float, ptr %83, align 4, !tbaa !34
  %85 = fmul nsz float %82, %84
  %86 = fneg nsz float %85
  %87 = call nsz float @llvm.fmuladd.f32(float %74, float %76, float %86)
  %88 = getelementptr inbounds nuw %struct.AVComplexFloat, ptr %19, i32 0, i32 0
  store float %87, ptr %88, align 4, !tbaa !32
  %89 = load ptr, ptr %9, align 8, !tbaa !60
  %90 = load i32, ptr %16, align 4, !tbaa !4
  %91 = sext i32 %90 to i64
  %92 = getelementptr inbounds %struct.AVComplexFloat, ptr %89, i64 %91
  %93 = getelementptr inbounds nuw %struct.AVComplexFloat, ptr %92, i32 0, i32 0
  %94 = load float, ptr %93, align 4, !tbaa !32
  %95 = getelementptr inbounds nuw %struct.AVComplexFloat, ptr %18, i32 0, i32 1
  %96 = load float, ptr %95, align 4, !tbaa !34
  %97 = load ptr, ptr %9, align 8, !tbaa !60
  %98 = load i32, ptr %16, align 4, !tbaa !4
  %99 = sext i32 %98 to i64
  %100 = getelementptr inbounds %struct.AVComplexFloat, ptr %97, i64 %99
  %101 = getelementptr inbounds nuw %struct.AVComplexFloat, ptr %100, i32 0, i32 1
  %102 = load float, ptr %101, align 4, !tbaa !34
  %103 = getelementptr inbounds nuw %struct.AVComplexFloat, ptr %18, i32 0, i32 0
  %104 = load float, ptr %103, align 4, !tbaa !32
  %105 = fmul nsz float %102, %104
  %106 = call nsz float @llvm.fmuladd.f32(float %94, float %96, float %105)
  %107 = getelementptr inbounds nuw %struct.AVComplexFloat, ptr %19, i32 0, i32 1
  store float %106, ptr %107, align 4, !tbaa !34
  br label %108

108:                                              ; preds = %68
  br label %109

109:                                              ; preds = %108
  %110 = getelementptr inbounds nuw %struct.AVComplexFloat, ptr %19, i32 0, i32 0
  %111 = load float, ptr %110, align 4, !tbaa !32
  %112 = getelementptr inbounds nuw %struct.AVComplexFloat, ptr %15, i32 0, i32 0
  %113 = load float, ptr %112, align 4, !tbaa !32
  %114 = fadd nsz float %113, %111
  store float %114, ptr %112, align 4, !tbaa !32
  %115 = getelementptr inbounds nuw %struct.AVComplexFloat, ptr %19, i32 0, i32 1
  %116 = load float, ptr %115, align 4, !tbaa !34
  %117 = getelementptr inbounds nuw %struct.AVComplexFloat, ptr %15, i32 0, i32 1
  %118 = load float, ptr %117, align 4, !tbaa !34
  %119 = fadd nsz float %118, %116
  store float %119, ptr %117, align 4, !tbaa !34
  call void @llvm.lifetime.end.p0(i64 8, ptr %19) #10
  call void @llvm.lifetime.end.p0(i64 8, ptr %18) #10
  call void @llvm.lifetime.end.p0(i64 8, ptr %17) #10
  br label %120

120:                                              ; preds = %109
  %121 = load i32, ptr %16, align 4, !tbaa !4
  %122 = add nsw i32 %121, 1
  store i32 %122, ptr %16, align 4, !tbaa !4
  br label %47, !llvm.loop !86

123:                                              ; preds = %51
  %124 = load ptr, ptr %10, align 8, !tbaa !60
  %125 = load i32, ptr %13, align 4, !tbaa !4
  %126 = sext i32 %125 to i64
  %127 = load i64, ptr %8, align 8, !tbaa !30
  %128 = mul nsw i64 %126, %127
  %129 = getelementptr inbounds %struct.AVComplexFloat, ptr %124, i64 %128
  call void @llvm.memcpy.p0.p0.i64(ptr align 4 %129, ptr align 4 %15, i64 8, i1 false), !tbaa.struct !35
  call void @llvm.lifetime.end.p0(i64 8, ptr %15) #10
  br label %130

130:                                              ; preds = %123
  %131 = load i32, ptr %13, align 4, !tbaa !4
  %132 = add nsw i32 %131, 1
  store i32 %132, ptr %13, align 4, !tbaa !4
  br label %41, !llvm.loop !87

133:                                              ; preds = %45
  call void @llvm.lifetime.end.p0(i64 8, ptr %12) #10
  call void @llvm.lifetime.end.p0(i64 4, ptr %11) #10
  call void @llvm.lifetime.end.p0(i64 8, ptr %10) #10
  call void @llvm.lifetime.end.p0(i64 8, ptr %9) #10
  ret void
}