; Function Attrs: nofree norecurse nosync nounwind memory(argmem: readwrite) uwtable
define internal void @ff_tx_fft_naive_float_c(ptr noundef readonly captures(none) %0, ptr noundef writeonly captures(none) %1, ptr noundef readonly captures(none) %2, i64 noundef %3) #13 {
  %5 = load i32, ptr %0, align 8, !tbaa !16
  %6 = getelementptr inbounds nuw i8, ptr %0, i64 4
  %7 = load i32, ptr %6, align 4, !tbaa !74
  %.not = icmp eq i32 %7, 0
  %8 = sitofp i32 %5 to double
  %.v = select i1 %.not, double 0xC01921FB54442D18, double 0x401921FB54442D18
  %9 = fdiv nsz double %.v, %8
  %10 = lshr i64 %3, 3
  %11 = icmp sgt i32 %5, 0
  br i1 %11, label %.preheader.us.preheader, label %._crit_edge39

.preheader.us.preheader:                          ; preds = %4
  %wide.trip.count45 = zext nneg i32 %5 to i64
  br label %.preheader.us

.preheader.us:                                    ; preds = %.preheader.us.preheader, %._crit_edge.us
  %indvars.iv42 = phi i64 [ 0, %.preheader.us.preheader ], [ %indvars.iv.next43, %._crit_edge.us ]
  %12 = trunc nuw nsw i64 %indvars.iv42 to i32
  %13 = uitofp nneg i32 %12 to double
  %14 = fmul nsz double %9, %13
  br label %15

15:                                               ; preds = %.preheader.us, %15
  %indvars.iv = phi i64 [ 0, %.preheader.us ], [ %indvars.iv.next, %15 ]
  %.sroa.011.136.us = phi float [ 0.000000e+00, %.preheader.us ], [ %32, %15 ]
  %.sroa.6.135.us = phi float [ 0.000000e+00, %.preheader.us ], [ %33, %15 ]
  %16 = trunc nuw nsw i64 %indvars.iv to i32
  %17 = uitofp nneg i32 %16 to double
  %18 = fmul nsz double %14, %17
  %19 = tail call nsz double @llvm.cos.f64(double %18)
  %20 = fptrunc nsz double %19 to float
  %21 = tail call nsz double @llvm.sin.f64(double %18)
  %22 = fptrunc nsz double %21 to float
  %23 = getelementptr inbounds nuw %struct.AVComplexFloat, ptr %2, i64 %indvars.iv
  %24 = load float, ptr %23, align 4, !tbaa !49
  %25 = getelementptr inbounds nuw i8, ptr %23, i64 4
  %26 = load float, ptr %25, align 4, !tbaa !51
  %27 = fneg nsz float %22
  %28 = fmul nsz float %26, %27
  %29 = tail call nsz float @llvm.fmuladd.f32(float %24, float %20, float %28)
  %30 = fmul nsz float %26, %20
  %31 = tail call nsz float @llvm.fmuladd.f32(float %24, float %22, float %30)
  %32 = fadd nsz float %.sroa.011.136.us, %29
  %33 = fadd nsz float %.sroa.6.135.us, %31
  %indvars.iv.next = add nuw nsw i64 %indvars.iv, 1
  %exitcond.not = icmp eq i64 %indvars.iv.next, %wide.trip.count45
  br i1 %exitcond.not, label %._crit_edge.us, label %15, !llvm.loop !75

._crit_edge.us:                                   ; preds = %15
  %34 = mul nuw nsw i64 %10, %indvars.iv42
  %35 = getelementptr inbounds nuw %struct.AVComplexFloat, ptr %1, i64 %34
  store float %32, ptr %35, align 4, !tbaa !27
  %.sroa.6.0..sroa_idx.us = getelementptr inbounds nuw i8, ptr %35, i64 4
  store float %33, ptr %.sroa.6.0..sroa_idx.us, align 4, !tbaa !27
  %indvars.iv.next43 = add nuw nsw i64 %indvars.iv42, 1
  %exitcond46.not = icmp eq i64 %indvars.iv.next43, %wide.trip.count45
  br i1 %exitcond46.not, label %._crit_edge39, label %.preheader.us, !llvm.loop !76

._crit_edge39:                                    ; preds = %._crit_edge.us, %4
  ret void
}